target datalayout = "e-m:e-p270:32:32-p271:32:32-p272:64:64-i64:64-i128:128-f80:128-n8:16:32:64-S128"
target triple = "x86_64-pc-linux-gnu"

%struct.AVCodecParser = type { [7 x i32], i32, ptr, ptr, ptr, ptr }
%struct.AVCodecParserContext = type { ptr, ptr, i64, i64, i64, i32, i32, i64, i64, i64, i64, i32, i32, [4 x i64], [4 x i64], [4 x i64], i32, i64, [4 x i64], i32, i32, i32, i32, [4 x i64], i64, i64, i32, i32, i32, i32, i32, i32, i32, i32, i32 }
%struct.SiprParserContext = type { %struct.ParseContext }
%struct.ParseContext = type { ptr, i32, i32, i32, i32, i32, i32, i32, i64 }
%struct.AVCodecContext = type { ptr, i32, i32, ptr, i32, i32, ptr, ptr, ptr, i64, i32, i32, ptr, i32, %struct.AVRational, %struct.AVRational, %struct.AVRational, i32, i32, i32, i32, i32, %struct.AVRational, i32, i32, i32, i32, i32, i32, i32, i32, i32, i32, i32, ptr, ptr, i32, float, float, float, float, float, float, float, float, float, i32, i32, i32, i32, i32, i32, i32, i32, i32, i32, i32, i32, ptr, ptr, ptr, i32, i32, i32, i32, i32, i32, i32, i32, i32, i32, %struct.AVChannelLayout, i32, i32, i32, i32, i32, i32, i32, i32, ptr, i32, i32, i32, float, float, i32, i32, i32, i32, i32, ptr, i64, i64, float, float, i32, i32, ptr, ptr, i32, i32, i32, i32, i32, ptr, ptr, ptr, ptr, i32, i32, [8 x i64], i32, i32, i32, i32, i32, i32, i32, ptr, ptr, i32, i32, i32, i32, i32, i32, i32, i32, i32, i32, ptr, ptr, i32, i32, ptr, ptr, ptr, ptr, i32, i32, i64, i32, i32, i64, ptr, i64, ptr, i32, ptr, i32 }
%struct.AVRational = type { i32, i32 }
%struct.AVChannelLayout = type { i32, i32, %union.anon, ptr }
%union.anon = type { i64 }

@ff_sipr_parser = constant %struct.AVCodecParser { [7 x i32] [i32 86057, i32 0, i32 0, i32 0, i32 0, i32 0, i32 0], i32 48, ptr null, ptr @sipr_parse, ptr @ff_parse_close, ptr null }, align 8

; Function Attrs: nounwind uwtable
define internal i32 @sipr_parse(ptr noundef %0, ptr noundef %1, ptr noundef %2, ptr noundef %3, ptr noundef %4, i32 noundef %5) #0 {
  %7 = alloca i32, align 4
  %8 = alloca ptr, align 8
  %9 = alloca ptr, align 8
  %10 = alloca ptr, align 8
  %11 = alloca ptr, align 8
  %12 = alloca ptr, align 8
  %13 = alloca i32, align 4
  %14 = alloca ptr, align 8
  %15 = alloca ptr, align 8
  %16 = alloca i32, align 4
  %17 = alloca i32, align 4
  store ptr %0, ptr %8, align 8, !tbaa !4
  store ptr %1, ptr %9, align 8, !tbaa !9
  store ptr %2, ptr %10, align 8, !tbaa !11
  store ptr %3, ptr %11, align 8, !tbaa !14
  store ptr %4, ptr %12, align 8, !tbaa !16
  store i32 %5, ptr %13, align 4, !tbaa !18
  call void @llvm.lifetime.start.p0(i64 8, ptr %14) #3
  %18 = load ptr, ptr %8, align 8, !tbaa !4
  %19 = getelementptr inbounds nuw %struct.AVCodecParserContext, ptr %18, i32 0, i32 0
  %20 = load ptr, ptr %19, align 8, !tbaa !20
  store ptr %20, ptr %14, align 8, !tbaa !24
  call void @llvm.lifetime.start.p0(i64 8, ptr %15) #3
  %21 = load ptr, ptr %14, align 8, !tbaa !24
  %22 = getelementptr inbounds nuw %struct.SiprParserContext, ptr %21, i32 0, i32 0
  store ptr %22, ptr %15, align 8, !tbaa !26
  call void @llvm.lifetime.start.p0(i64 4, ptr %16) #3
  %23 = load ptr, ptr %9, align 8, !tbaa !9
  %24 = load ptr, ptr %12, align 8, !tbaa !16
  %25 = load i32, ptr %13, align 4, !tbaa !18
  %26 = call i32 @sipr_split(ptr noundef %23, ptr noundef %24, i32 noundef %25)
  store i32 %26, ptr %16, align 4, !tbaa !18
  %27 = load ptr, ptr %15, align 8, !tbaa !26
  %28 = load i32, ptr %16, align 4, !tbaa !18
  %29 = call i32 @ff_combine_frame(ptr noundef %27, i32 noundef %28, ptr noundef %12, ptr noundef %13)
  %30 = icmp slt i32 %29, 0
  br i1 %30, label %31, label %35

31:                                               ; preds = %6
  %32 = load ptr, ptr %10, align 8, !tbaa !11
  store ptr null, ptr %32, align 8, !tbaa !16
  %33 = load ptr, ptr %11, align 8, !tbaa !14
  store i32 0, ptr %33, align 4, !tbaa !18
  %34 = load i32, ptr %13, align 4, !tbaa !18
  store i32 %34, ptr %7, align 4
  store i32 1, ptr %17, align 4
  br label %41

35:                                               ; preds = %6
  %36 = load ptr, ptr %12, align 8, !tbaa !16
  %37 = load ptr, ptr %10, align 8, !tbaa !11
  store ptr %36, ptr %37, align 8, !tbaa !16
  %38 = load i32, ptr %13, align 4, !tbaa !18
  %39 = load ptr, ptr %11, align 8, !tbaa !14
  store i32 %38, ptr %39, align 4, !tbaa !18
  %40 = load i32, ptr %16, align 4, !tbaa !18
  store i32 %40, ptr %7, align 4
  store i32 1, ptr %17, align 4
  br label %41

41:                                               ; preds = %35, %31
  call void @llvm.lifetime.end.p0(i64 4, ptr %16) #3
  call void @llvm.lifetime.end.p0(i64 8, ptr %15) #3
  call void @llvm.lifetime.end.p0(i64 8, ptr %14) #3
  %42 = load i32, ptr %7, align 4
  ret i32 %42
}

declare void @ff_parse_close(ptr noundef) #1

; Function Attrs: nocallback nofree nosync nounwind willreturn memory(argmem: readwrite)
declare void @llvm.lifetime.start.p0(i64 immarg, ptr captures(none)) #2

; Function Attrs: nounwind uwtable
define internal i32 @sipr_split(ptr noundef %0, ptr noundef %1, i32 noundef %2) #0 {
  %4 = alloca ptr, align 8
  %5 = alloca ptr, align 8
  %6 = alloca i32, align 4
  %7 = alloca i32, align 4
  store ptr %0, ptr %4, align 8, !tbaa !9
  store ptr %1, ptr %5, align 8, !tbaa !16
  store i32 %2, ptr %6, align 4, !tbaa !18
  call void @llvm.lifetime.start.p0(i64 4, ptr %7) #3
  %8 = load ptr, ptr %4, align 8, !tbaa !9
  %9 = getelementptr inbounds nuw %struct.AVCodecContext, ptr %8, i32 0, i32 73
  %10 = load i32, ptr %9, align 4, !tbaa !28
  switch i32 %10, label %15 [
    i32 20, label %11
    i32 19, label %11
    i32 29, label %11
    i32 37, label %11
  ]

11:                                               ; preds = %3, %3, %3, %3
  %12 = load ptr, ptr %4, align 8, !tbaa !9
  %13 = getelementptr inbounds nuw %struct.AVCodecContext, ptr %12, i32 0, i32 73
  %14 = load i32, ptr %13, align 4, !tbaa !28
  store i32 %14, ptr %7, align 4, !tbaa !18
  br label %37

15:                                               ; preds = %3
  %16 = load ptr, ptr %4, align 8, !tbaa !9
  %17 = getelementptr inbounds nuw %struct.AVCodecContext, ptr %16, i32 0, i32 9
  %18 = load i64, ptr %17, align 8, !tbaa !43
  %19 = icmp sgt i64 %18, 12200
  br i1 %19, label %20, label %21

20:                                               ; preds = %15
  store i32 20, ptr %7, align 4, !tbaa !18
  br label %36

21:                                               ; preds = %15
  %22 = load ptr, ptr %4, align 8, !tbaa !9
  %23 = getelementptr inbounds nuw %struct.AVCodecContext, ptr %22, i32 0, i32 9
  %24 = load i64, ptr %23, align 8, !tbaa !43
  %25 = icmp sgt i64 %24, 7500
  br i1 %25, label %26, label %27

26:                                               ; preds = %21
  store i32 19, ptr %7, align 4, !tbaa !18
  br label %35

27:                                               ; preds = %21
  %28 = load ptr, ptr %4, align 8, !tbaa !9
  %29 = getelementptr inbounds nuw %struct.AVCodecContext, ptr %28, i32 0, i32 9
  %30 = load i64, ptr %29, align 8, !tbaa !43
  %31 = icmp sgt i64 %30, 5750
  br i1 %31, label %32, label %33

32:                                               ; preds = %27
  store i32 29, ptr %7, align 4, !tbaa !18
  br label %34

33:                                               ; preds = %27
  store i32 37, ptr %7, align 4, !tbaa !18
  br label %34

34:                                               ; preds = %33, %32
  br label %35

35:                                               ; preds = %34, %26
  br label %36

36:                                               ; preds = %35, %20
  br label %37

37:                                               ; preds = %36, %11
  %38 = load i32, ptr %7, align 4, !tbaa !18
  %39 = load i32, ptr %6, align 4, !tbaa !18
  %40 = icmp sgt i32 %38, %39
  br i1 %40, label %41, label %43

41:                                               ; preds = %37
  %42 = load i32, ptr %6, align 4, !tbaa !18
  br label %45

43:                                               ; preds = %37
  %44 = load i32, ptr %7, align 4, !tbaa !18
  br label %45

45:                                               ; preds = %43, %41
  %46 = phi i32 [ %42, %41 ], [ %44, %43 ]
  call void @llvm.lifetime.end.p0(i64 4, ptr %7) #3
  ret i32 %46
}

declare i32 @ff_combine_frame(ptr noundef, i32 noundef, ptr noundef, ptr noundef) #1

; Function Attrs: nocallback nofree nosync nounwind willreturn memory(argmem: readwrite)
declare void @llvm.lifetime.end.p0(i64 immarg, ptr captures(none)) #2


!llvm.module.flags = !{!0, !1, !2, !3}

!0 = !{i32 1, !"wchar_size", i32 4}
!1 = !{i32 8, !"PIC Level", i32 2}
!2 = !{i32 7, !"uwtable", i32 2}
!3 = !{i32 1, !"override-stack-alignment", i32 16}
!4 = !{!5, !5, i64 0}
!5 = !{!"p1 _ZTS20AVCodecParserContext", !6, i64 0}
!6 = !{!"any pointer", !7, i64 0}
!7 = !{!"omnipotent char", !8, i64 0}
!8 = !{!"Simple C/C++ TBAA"}
!9 = !{!10, !10, i64 0}
!10 = !{!"p1 _ZTS14AVCodecContext", !6, i64 0}
!11 = !{!12, !12, i64 0}
!12 = !{!"p2 omnipotent char", !13, i64 0}
!13 = !{!"any p2 pointer", !6, i64 0}
!14 = !{!15, !15, i64 0}
!15 = !{!"p1 int", !6, i64 0}
!16 = !{!17, !17, i64 0}
!17 = !{!"p1 omnipotent char", !6, i64 0}
!18 = !{!19, !19, i64 0}
!19 = !{!"int", !7, i64 0}
!20 = !{!21, !6, i64 0}
!21 = !{!"AVCodecParserContext", !6, i64 0, !22, i64 8, !23, i64 16, !23, i64 24, !23, i64 32, !19, i64 40, !19, i64 44, !23, i64 48, !23, i64 56, !23, i64 64, !23, i64 72, !19, i64 80, !19, i64 84, !7, i64 88, !7, i64 120, !7, i64 152, !19, i64 184, !23, i64 192, !7, i64 200, !19, i64 232, !19, i64 236, !19, i64 240, !19, i64 244, !7, i64 248, !23, i64 280, !23, i64 288, !19, i64 296, !19, i64 300, !19, i64 304, !19, i64 308, !19, i64 312, !19, i64 316, !19, i64 320, !19, i64 324, !19, i64 328}
!22 = !{!"p1 _ZTS13AVCodecParser", !6, i64 0}
!23 = !{!"long", !7, i64 0}
!24 = !{!25, !25, i64 0}
!25 = !{!"p1 _ZTS17SiprParserContext", !6, i64 0}
!26 = !{!27, !27, i64 0}
!27 = !{!"p1 _ZTS12ParseContext", !6, i64 0}
!28 = !{!29, !19, i64 380}
!29 = !{!"AVCodecContext", !30, i64 0, !19, i64 8, !19, i64 12, !31, i64 16, !19, i64 24, !19, i64 28, !6, i64 32, !32, i64 40, !6, i64 48, !23, i64 56, !19, i64 64, !19, i64 68, !17, i64 72, !19, i64 80, !33, i64 84, !33, i64 92, !33, i64 100, !19, i64 108, !19, i64 112, !19, i64 116, !19, i64 120, !19, i64 124, !33, i64 128, !19, i64 136, !19, i64 140, !19, i64 144, !19, i64 148, !19, i64 152, !19, i64 156, !19, i64 160, !19, i64 164, !19, i64 168, !19, i64 172, !19, i64 176, !6, i64 184, !6, i64 192, !19, i64 200, !34, i64 204, !34, i64 208, !34, i64 212, !34, i64 216, !34, i64 220, !34, i64 224, !34, i64 228, !34, i64 232, !34, i64 236, !19, i64 240, !19, i64 244, !19, i64 248, !19, i64 252, !19, i64 256, !19, i64 260, !19, i64 264, !19, i64 268, !19, i64 272, !19, i64 276, !19, i64 280, !19, i64 284, !35, i64 288, !35, i64 296, !35, i64 304, !19, i64 312, !19, i64 316, !19, i64 320, !19, i64 324, !19, i64 328, !19, i64 332, !19, i64 336, !19, i64 340, !19, i64 344, !19, i64 348, !36, i64 352, !19, i64 376, !19, i64 380, !19, i64 384, !19, i64 388, !19, i64 392, !19, i64 396, !19, i64 400, !19, i64 404, !6, i64 408, !19, i64 416, !19, i64 420, !19, i64 424, !34, i64 428, !34, i64 432, !19, i64 436, !19, i64 440, !19, i64 444, !19, i64 448, !19, i64 452, !37, i64 456, !23, i64 464, !23, i64 472, !34, i64 480, !34, i64 484, !19, i64 488, !19, i64 492, !17, i64 496, !17, i64 504, !19, i64 512, !19, i64 516, !19, i64 520, !19, i64 524, !19, i64 528, !38, i64 536, !6, i64 544, !39, i64 552, !39, i64 560, !19, i64 568, !19, i64 572, !7, i64 576, !19, i64 640, !19, i64 644, !19, i64 648, !19, i64 652, !19, i64 656, !19, i64 660, !19, i64 664, !6, i64 672, !6, i64 680, !19, i64 688, !19, i64 692, !19, i64 696, !19, i64 700, !19, i64 704, !19, i64 708, !19, i64 712, !19, i64 716, !19, i64 720, !19, i64 724, !40, i64 728, !17, i64 736, !19, i64 744, !19, i64 748, !17, i64 752, !17, i64 760, !17, i64 768, !41, i64 776, !19, i64 784, !19, i64 788, !23, i64 792, !19, i64 800, !19, i64 804, !23, i64 808, !6, i64 816, !23, i64 824, !15, i64 832, !19, i64 840, !42, i64 848, !19, i64 856}
!30 = !{!"p1 _ZTS7AVClass", !6, i64 0}
!31 = !{!"p1 _ZTS7AVCodec", !6, i64 0}
!32 = !{!"p1 _ZTS15AVCodecInternal", !6, i64 0}
!33 = !{!"AVRational", !19, i64 0, !19, i64 4}
!34 = !{!"float", !7, i64 0}
!35 = !{!"p1 short", !6, i64 0}
!36 = !{!"AVChannelLayout", !19, i64 0, !19, i64 4, !7, i64 8, !6, i64 16}
!37 = !{!"p1 _ZTS10RcOverride", !6, i64 0}
!38 = !{!"p1 _ZTS9AVHWAccel", !6, i64 0}
!39 = !{!"p1 _ZTS11AVBufferRef", !6, i64 0}
!40 = !{!"p1 _ZTS17AVCodecDescriptor", !6, i64 0}
!41 = !{!"p1 _ZTS16AVPacketSideData", !6, i64 0}
!42 = !{!"p2 _ZTS15AVFrameSideData", !13, i64 0}
!43 = !{!29, !23, i64 56}
